; Function Attrs: nofree norecurse nosync nounwind memory(readwrite, inaccessiblemem: none) uwtable
define hidden void @AnyShortXorLine(ptr nocapture noundef readonly %0, i32 noundef %1, i32 noundef %2, i32 noundef %3, i32 noundef %4, i32 noundef %5, i32 noundef %6, i32 noundef %7, i32 noundef %8, i32 noundef %9, ptr nocapture readnone %10, ptr nocapture noundef readonly %11) #2 {
  %13 = getelementptr inbounds i8, ptr %11, i64 4
  %14 = load i32, ptr %13, align 4
  %15 = getelementptr inbounds i8, ptr %11, i64 8
  %16 = load i32, ptr %15, align 4
  %17 = getelementptr inbounds i8, ptr %0, i64 32
  %18 = load i32, ptr %17, align 8
  %19 = getelementptr inbounds i8, ptr %0, i64 16
  %20 = load ptr, ptr %19, align 8
  %21 = ptrtoint ptr %20 to i64
  %22 = sext i32 %2 to i64
  %23 = sext i32 %18 to i64
  %24 = mul nsw i64 %23, %22
  %25 = sext i32 %1 to i64
  %26 = shl nsw i64 %25, 1
  %27 = add nsw i64 %24, %26
  %28 = add nsw i64 %27, %21
  %29 = inttoptr i64 %28 to ptr
  %30 = and i32 %6, 1
  %.not = icmp eq i32 %30, 0
  br i1 %.not, label %31, label %37

31:                                               ; preds = %12
  %32 = and i32 %6, 2
  %.not46 = icmp eq i32 %32, 0
  br i1 %.not46, label %33, label %37

33:                                               ; preds = %31
  %34 = and i32 %6, 4
  %.not47 = icmp eq i32 %34, 0
  %35 = sub nsw i32 0, %18
  %36 = select i1 %.not47, i32 %35, i32 %18
  br label %37

37:                                               ; preds = %33, %31, %12
  %38 = phi i32 [ 2, %12 ], [ %36, %33 ], [ -2, %31 ]
  %39 = and i32 %8, 1
  %.not48 = icmp eq i32 %39, 0
  br i1 %.not48, label %40, label %48

40:                                               ; preds = %37
  %41 = and i32 %8, 2
  %.not49 = icmp eq i32 %41, 0
  br i1 %.not49, label %42, label %48

42:                                               ; preds = %40
  %43 = and i32 %8, 4
  %.not50 = icmp eq i32 %43, 0
  br i1 %.not50, label %44, label %48

44:                                               ; preds = %42
  %45 = and i32 %8, 8
  %.not51 = icmp eq i32 %45, 0
  %46 = sub nsw i32 0, %18
  %47 = select i1 %.not51, i32 0, i32 %46
  br label %48

48:                                               ; preds = %42, %40, %44, %37
  %49 = phi i32 [ 2, %37 ], [ -2, %40 ], [ %47, %44 ], [ %18, %42 ]
  %50 = icmp eq i32 %7, 0
  %51 = xor i32 %14, %3
  %52 = xor i32 %16, -1
  %53 = and i32 %51, %52
  %54 = trunc i32 %53 to i16
  br i1 %50, label %.preheader, label %.preheader52

.preheader52:                                     ; preds = %48
  %55 = sub i32 0, %9
  br label %65

.preheader:                                       ; preds = %48
  %56 = sext i32 %38 to i64
  br label %57

57:                                               ; preds = %.preheader, %57
  %.041 = phi ptr [ %62, %57 ], [ %29, %.preheader ]
  %.0 = phi i32 [ %63, %57 ], [ %4, %.preheader ]
  %58 = load i16, ptr %.041, align 2
  %59 = xor i16 %58, %54
  store i16 %59, ptr %.041, align 2
  %60 = ptrtoint ptr %.041 to i64
  %61 = add nsw i64 %60, %56
  %62 = inttoptr i64 %61 to ptr
  %63 = add nsw i32 %.0, -1
  %64 = icmp sgt i32 %.0, 1
  br i1 %64, label %57, label %.loopexit, !llvm.loop !21

65:                                               ; preds = %.preheader52, %65
  %.043 = phi i32 [ %.144, %65 ], [ %5, %.preheader52 ]
  %.142 = phi ptr [ %.2, %65 ], [ %29, %.preheader52 ]
  %.1 = phi i32 [ %71, %65 ], [ %4, %.preheader52 ]
  %66 = load i16, ptr %.142, align 2
  %67 = xor i16 %66, %54
  store i16 %67, ptr %.142, align 2
  %68 = icmp slt i32 %.043, 0
  %69 = ptrtoint ptr %.142 to i64
  %.144.p = select i1 %68, i32 %7, i32 %55
  %.144 = add i32 %.043, %.144.p
  %70 = select i1 %68, i32 0, i32 %49
  %.2.in.v.v = add nsw i32 %38, %70
  %.2.in.v = sext i32 %.2.in.v.v to i64
  %.2.in = add nsw i64 %69, %.2.in.v
  %.2 = inttoptr i64 %.2.in to ptr
  %71 = add nsw i32 %.1, -1
  %72 = icmp sgt i32 %.1, 1
  br i1 %72, label %65, label %.loopexit, !llvm.loop !22

.loopexit:                                        ; preds = %65, %57
  ret void
}